(i__main__
Voc
p0
(dp1
S'nest'
p2
(lp3
sS'type'
p4
S'voc'
p5
sS'attr'
p6
(dp7
S'WORD'
p8
(i__main__
Function
p9
(dp10
g2
(lp11
sg4
S'function'
p12
sg6
(dp13
sS'value'
p14
c__main__
WORD
p15
sbsS'FIND'
p16
(i__main__
Function
p17
(dp18
g2
(lp19
sg4
S'function'
p20
sg6
(dp21
sg14
c__main__
FIND
p22
sbsS'INTERPRET'
p23
(i__main__
Function
p24
(dp25
g2
(lp26
sg4
S'function'
p27
sg6
(dp28
sg14
c__main__
INTERPRET
p29
sbssg14
S'FORTH'
p30
sb.