(i__main__
Voc
p0
(dp1
S'nest'
p2
(lp3
sS'type'
p4
S'voc'
p5
sS'attr'
p6
(dp7
S'INTERPRET'
p8
(i__main__
Function
p9
(dp10
g2
(lp11
sg4
S'function'
p12
sg6
(dp13
sS'value'
p14
c__main__
INTERPRET
p15
sbssg14
S'FORTH'
p16
sb.