(dp0
Vinit
p1
(i__main__
ColonDef
p2
(dp3
S'immed'
p4
I00
sS'nest'
p5
(lp6
(i__main__
Function
p7
(dp8
S'attr'
p9
(dp10
sg5
(lp11
sS'value'
p12
S'nop'
p13
sg4
I00
sS'type'
p14
S'function'
p15
sS'fn'
p16
c__main__
nop
p17
sbasg14
S'colondef'
p18
sg9
(dp19
sg12
g1
sbs.